target datalayout = "e-m:e-p270:32:32-p271:32:32-p272:64:64-i64:64-i128:128-f80:128-n8:16:32:64-S128"
target triple = "x86_64-pc-linux-gnu"

%class.LogTagSet = type { ptr, i64, [5 x i32], [4 x i8], %class.LogOutputList, %class.LogDecorators, ptr }
%class.LogOutputList = type <{ [6 x ptr], i32, [4 x i8] }>
%class.LogDecorators = type { i32 }
%class.THPSupport = type { i8, i32, i64 }

@UseTransparentHugePages = external global i8, align 1
@UseMadvPopulateWrite = external global i8, align 1
@.str.188 = private unnamed_addr constant [59 x i8] c"::madvise(0x%016lx, %lu, %d) failed; error='%s' (errno=%d)\00", align 1
@_ZN16LogTagSetMappingILN6LogTag4typeE49ELS1_105ELS1_0ELS1_0ELS1_0ELS1_0EE7_tagsetE = linkonce_odr hidden global %class.LogTagSet zeroinitializer, comdat, align 8
@_ZN6OSInfo13_vm_page_sizeE = external global i64, align 8
@_ZN9HugePages12_thp_supportE = external global %class.THPSupport, align 8

; Function Attrs: mustprogress nounwind uwtable
define linkonce_odr hidden noundef zeroext i1 @_ZNK13LogOutputList8is_levelEN8LogLevel4typeE(ptr noundef nonnull align 8 dereferenceable(52) %0, i32 noundef %1) #1 comdat align 2 {
  %3 = alloca ptr, align 8
  %4 = alloca i32, align 4
  store ptr %0, ptr %3, align 8
  store i32 %1, ptr %4, align 4
  %5 = load ptr, ptr %3, align 8
  %6 = getelementptr inbounds %class.LogOutputList, ptr %5, i32 0, i32 0
  %7 = load i32, ptr %4, align 4
  %8 = zext i32 %7 to i64
  %9 = getelementptr inbounds [6 x ptr], ptr %6, i64 0, i64 %8
  %10 = load volatile ptr, ptr %9, align 8
  %11 = icmp ne ptr %10, null
  ret i1 %11
}

; Function Attrs: mustprogress nounwind uwtable
define linkonce_odr hidden noundef zeroext i1 @_ZNK9LogTagSet8is_levelEN8LogLevel4typeE(ptr noundef nonnull align 8 dereferenceable(112) %0, i32 noundef %1) #1 comdat align 2 {
  %3 = alloca ptr, align 8
  %4 = alloca i32, align 4
  store ptr %0, ptr %3, align 8
  store i32 %1, ptr %4, align 4
  %5 = load ptr, ptr %3, align 8
  %6 = getelementptr inbounds %class.LogTagSet, ptr %5, i32 0, i32 4
  %7 = load i32, ptr %4, align 4
  %8 = call noundef zeroext i1 @_ZNK13LogOutputList8is_levelEN8LogLevel4typeE(ptr noundef nonnull align 8 dereferenceable(52) %6, i32 noundef %7)
  ret i1 %8
}

; Function Attrs: mustprogress nounwind uwtable
define linkonce_odr hidden noundef nonnull align 8 dereferenceable(112) ptr @_ZN16LogTagSetMappingILN6LogTag4typeE49ELS1_105ELS1_0ELS1_0ELS1_0ELS1_0EE6tagsetEv() #1 comdat align 2 {
  ret ptr @_ZN16LogTagSetMappingILN6LogTag4typeE49ELS1_105ELS1_0ELS1_0ELS1_0ELS1_0EE7_tagsetE
}

; Function Attrs: mustprogress nounwind uwtable
define linkonce_odr hidden noundef i64 @_ZN6OSInfo12vm_page_sizeEv() #1 comdat align 2 {
  %1 = load i64, ptr @_ZN6OSInfo13_vm_page_sizeE, align 8
  ret i64 %1
}

; Function Attrs: mustprogress nounwind uwtable
define linkonce_odr hidden noundef i64 @_Z3p2iPVKv(ptr noundef %0) #1 comdat {
  %2 = alloca ptr, align 8
  store ptr %0, ptr %2, align 8
  %3 = load ptr, ptr %2, align 8
  %4 = ptrtoint ptr %3 to i64
  ret i64 %4
}

; Function Attrs: mustprogress nounwind uwtable
define linkonce_odr hidden noundef zeroext i1 @_ZN7LogImplILN6LogTag4typeE49ELS1_105ELS1_0ELS1_0ELS1_0ELS1_0EE8is_levelEN8LogLevel4typeE(i32 noundef %0) #1 comdat align 2 {
  %2 = alloca i32, align 4
  store i32 %0, ptr %2, align 4
  %3 = call noundef nonnull align 8 dereferenceable(112) ptr @_ZN16LogTagSetMappingILN6LogTag4typeE49ELS1_105ELS1_0ELS1_0ELS1_0ELS1_0EE6tagsetEv()
  %4 = load i32, ptr %2, align 4
  %5 = call noundef zeroext i1 @_ZNK9LogTagSet8is_levelEN8LogLevel4typeE(ptr noundef nonnull align 8 dereferenceable(112) %3, i32 noundef %4)
  ret i1 %5
}

; Function Attrs: mustprogress nounwind uwtable
define linkonce_odr hidden noundef i64 @_ZN2os12vm_page_sizeEv() #1 comdat align 2 {
  %1 = call noundef i64 @_ZN6OSInfo12vm_page_sizeEv()
  ret i64 %1
}

; Function Attrs: mustprogress nounwind uwtable
define linkonce_odr hidden noundef i32 @_ZN9HugePages8thp_modeEv() #1 comdat align 2 {
  %1 = call noundef i32 @_ZNK10THPSupport4modeEv(ptr noundef nonnull align 8 dereferenceable(16) @_ZN9HugePages12_thp_supportE)
  ret i32 %1
}

; Function Attrs: mustprogress nounwind uwtable
define linkonce_odr hidden noundef i64 @_Z13pointer_deltaPVKvS0_m(ptr noundef %0, ptr noundef %1, i64 noundef %2) #1 comdat {
  %4 = alloca ptr, align 8
  %5 = alloca ptr, align 8
  %6 = alloca i64, align 8
  store ptr %0, ptr %4, align 8
  store ptr %1, ptr %5, align 8
  store i64 %2, ptr %6, align 8
  %7 = load ptr, ptr %4, align 8
  %8 = ptrtoint ptr %7 to i64
  %9 = load ptr, ptr %5, align 8
  %10 = ptrtoint ptr %9 to i64
  %11 = sub i64 %8, %10
  %12 = load i64, ptr %6, align 8
  %13 = udiv i64 %11, %12
  ret i64 %13
}

; Function Attrs: mustprogress nounwind uwtable
define hidden noundef i64 @_ZN2os18pd_pretouch_memoryEPvS0_m(ptr noundef %0, ptr noundef %1, i64 noundef %2) #1 align 2 {
  %4 = alloca i64, align 8
  %5 = alloca ptr, align 8
  %6 = alloca ptr, align 8
  %7 = alloca i64, align 8
  %8 = alloca i64, align 8
  %9 = alloca i32, align 4
  store ptr %0, ptr %5, align 8
  store ptr %1, ptr %6, align 8
  store i64 %2, ptr %7, align 8
  %10 = load ptr, ptr %6, align 8
  %11 = load ptr, ptr %5, align 8
  %12 = call noundef i64 @_Z13pointer_deltaPVKvS0_m(ptr noundef %10, ptr noundef %11, i64 noundef 1)
  %13 = load i64, ptr %7, align 8
  %14 = add i64 %12, %13
  store i64 %14, ptr %8, align 8
  %15 = call noundef i32 @_ZN9HugePages8thp_modeEv()
  %16 = icmp eq i32 %15, 0
  br i1 %16, label %20, label %17

17:                                               ; preds = %3
  %18 = load i8, ptr @UseTransparentHugePages, align 1
  %19 = trunc i8 %18 to i1
  br i1 %19, label %20, label %55

20:                                               ; preds = %17, %3
  store i32 0, ptr %9, align 4
  %21 = load i8, ptr @UseMadvPopulateWrite, align 1
  %22 = trunc i8 %21 to i1
  br i1 %22, label %23, label %31

23:                                               ; preds = %20
  %24 = load ptr, ptr %5, align 8
  %25 = load i64, ptr %8, align 8
  %26 = call i32 @madvise(ptr noundef %24, i64 noundef %25, i32 noundef 23) #12
  %27 = icmp eq i32 %26, -1
  br i1 %27, label %28, label %31

28:                                               ; preds = %23
  %29 = call ptr @__errno_location() #14
  %30 = load i32, ptr %29, align 4
  store i32 %30, ptr %9, align 4
  br label %31

31:                                               ; preds = %28, %23, %20
  %32 = load i8, ptr @UseMadvPopulateWrite, align 1
  %33 = trunc i8 %32 to i1
  br i1 %33, label %34, label %37

34:                                               ; preds = %31
  %35 = load i32, ptr %9, align 4
  %36 = icmp eq i32 %35, 22
  br i1 %36, label %37, label %39

37:                                               ; preds = %34, %31
  %38 = call noundef i64 @_ZN2os12vm_page_sizeEv()
  store i64 %38, ptr %4, align 8
  br label %57

39:                                               ; preds = %34
  %40 = load i32, ptr %9, align 4
  %41 = icmp ne i32 %40, 0
  br i1 %41, label %42, label %53

42:                                               ; preds = %39
  %43 = call noundef zeroext i1 @_ZN7LogImplILN6LogTag4typeE49ELS1_105ELS1_0ELS1_0ELS1_0ELS1_0EE8is_levelEN8LogLevel4typeE(i32 noundef 3)
  br i1 %43, label %45, label %44

44:                                               ; preds = %42
  br label %52

45:                                               ; preds = %42
  %46 = load ptr, ptr %5, align 8
  %47 = call noundef i64 @_Z3p2iPVKv(ptr noundef %46)
  %48 = load i64, ptr %8, align 8
  %49 = load i32, ptr %9, align 4
  %50 = call noundef ptr @_ZN2os8strerrorEi(i32 noundef %49)
  %51 = load i32, ptr %9, align 4
  call void (ptr, ...) @_ZN7LogImplILN6LogTag4typeE49ELS1_105ELS1_0ELS1_0ELS1_0ELS1_0EE5writeILN8LogLevel4typeE3EEEvPKcz(ptr noundef @.str.188, i64 noundef %47, i64 noundef %48, i32 noundef 23, ptr noundef %50, i32 noundef %51)
  br label %52

52:                                               ; preds = %45, %44
  br label %53

53:                                               ; preds = %52, %39
  br label %54

54:                                               ; preds = %53
  store i64 0, ptr %4, align 8
  br label %57

55:                                               ; preds = %17
  %56 = load i64, ptr %7, align 8
  store i64 %56, ptr %4, align 8
  br label %57

57:                                               ; preds = %55, %54, %37
  %58 = load i64, ptr %4, align 8
  ret i64 %58
}