; Function Attrs: mustprogress nounwind uwtable
define hidden noundef i64 @_ZN2os18pd_pretouch_memoryEPvS0_m(ptr noundef %0, ptr noundef %1, i64 noundef %2) local_unnamed_addr #0 align 2 {
  %4 = ptrtoint ptr %1 to i64
  %5 = ptrtoint ptr %0 to i64
  %6 = sub i64 %4, %5
  %7 = add i64 %6, %2
  %8 = tail call noundef i32 @_ZNK10THPSupport4modeEv(ptr noundef nonnull align 8 dereferenceable(16) @_ZN9HugePages12_thp_supportE) #26
  %9 = icmp eq i32 %8, 0
  br i1 %9, label %13, label %10

10:                                               ; preds = %3
  %11 = load i8, ptr @UseTransparentHugePages, align 1
  %12 = trunc i8 %11 to i1
  br i1 %12, label %13, label %33

13:                                               ; preds = %10, %3
  %14 = load i8, ptr @UseMadvPopulateWrite, align 1
  %15 = trunc i8 %14 to i1
  br i1 %15, label %16, label %22

16:                                               ; preds = %13
  %17 = tail call i32 @madvise(ptr noundef %0, i64 noundef %7, i32 noundef 23) #26
  %18 = icmp eq i32 %17, -1
  br i1 %18, label %19, label %22

19:                                               ; preds = %16
  %20 = tail call ptr @__errno_location() #28
  %21 = load i32, ptr %20, align 4
  br label %22

22:                                               ; preds = %19, %16, %13
  %.0 = phi i32 [ %21, %19 ], [ 0, %16 ], [ 0, %13 ]
  %23 = load i8, ptr @UseMadvPopulateWrite, align 1
  %24 = trunc i8 %23 to i1
  %25 = icmp ne i32 %.0, 22
  %or.cond.not = select i1 %24, i1 %25, i1 false
  br i1 %or.cond.not, label %28, label %26

26:                                               ; preds = %22
  %27 = load i64, ptr @_ZN6OSInfo13_vm_page_sizeE, align 8
  br label %33

28:                                               ; preds = %22
  %.not = icmp eq i32 %.0, 0
  br i1 %.not, label %33, label %29

29:                                               ; preds = %28
  %30 = load volatile ptr, ptr getelementptr inbounds (i8, ptr @_ZN16LogTagSetMappingILN6LogTag4typeE49ELS1_105ELS1_0ELS1_0ELS1_0ELS1_0EE7_tagsetE, i64 64), align 8
  %.not15 = icmp eq ptr %30, null
  br i1 %.not15, label %33, label %31

31:                                               ; preds = %29
  %32 = tail call noundef ptr @_ZN2os8strerrorEi(i32 noundef %.0) #26
  tail call void (ptr, ...) @_ZN7LogImplILN6LogTag4typeE49ELS1_105ELS1_0ELS1_0ELS1_0ELS1_0EE5writeILN8LogLevel4typeE3EEEvPKcz(ptr noundef nonnull @.str.188, i64 noundef %5, i64 noundef %7, i32 noundef 23, ptr noundef %32, i32 noundef %.0)
  br label %33

33:                                               ; preds = %10, %31, %29, %28, %26
  %.013 = phi i64 [ %27, %26 ], [ 0, %28 ], [ 0, %29 ], [ 0, %31 ], [ %2, %10 ]
  ret i64 %.013
}